target datalayout = "e-m:e-p270:32:32-p271:32:32-p272:64:64-i64:64-i128:128-f80:128-n8:16:32:64-S128"
target triple = "x86_64-pc-linux-gnu"

%struct.x509_st = type { %struct.x509_cinf_st, %struct.X509_algor_st, %struct.asn1_string_st, %struct.x509_sig_info_st, %struct.CRYPTO_REF_COUNT, %struct.crypto_ex_data_st, i64, i64, i32, i32, i32, i32, ptr, ptr, ptr, ptr, ptr, ptr, ptr, ptr, [20 x i8], ptr, ptr, i32, ptr, ptr, ptr }
%struct.x509_cinf_st = type { ptr, %struct.asn1_string_st, %struct.X509_algor_st, ptr, %struct.X509_val_st, ptr, ptr, ptr, ptr, ptr, %struct.ASN1_ENCODING_st }
%struct.X509_val_st = type { ptr, ptr }
%struct.ASN1_ENCODING_st = type { ptr, i64, i32 }
%struct.X509_algor_st = type { ptr, ptr }
%struct.asn1_string_st = type { i32, i32, ptr, i64 }
%struct.x509_sig_info_st = type { i32, i32, i32, i32 }
%struct.CRYPTO_REF_COUNT = type { i32 }
%struct.crypto_ex_data_st = type { ptr, ptr }

@X509_it.local_it = internal constant { i8, [7 x i8], i64, ptr, i64, ptr, i64, ptr } { i8 1, [7 x i8] zeroinitializer, i64 16, ptr @X509_seq_tt, i64 3, ptr @X509_aux, i64 384, ptr @.str.1 }, align 8
@.str.2 = private unnamed_addr constant [32 x i8] c"../openssl/crypto/x509/x_x509.c\00", align 1

; Function Attrs: nounwind uwtable
define ptr @X509_it() #0 {
  ret ptr @X509_it.local_it
}

; Function Attrs: nounwind uwtable
define i32 @i2d_X509(ptr noundef %0, ptr noundef %1) #0 {
  %3 = alloca ptr, align 8
  %4 = alloca ptr, align 8
  store ptr %0, ptr %3, align 8, !tbaa !16
  store ptr %1, ptr %4, align 8, !tbaa !8
  %5 = load ptr, ptr %3, align 8, !tbaa !16
  %6 = load ptr, ptr %4, align 8, !tbaa !8
  %7 = call ptr @X509_it()
  %8 = call i32 @ASN1_item_i2d(ptr noundef %5, ptr noundef %6, ptr noundef %7)
  ret i32 %8
}

; Function Attrs: nounwind uwtable
define internal i32 @i2d_x509_aux_internal(ptr noundef %0, ptr noundef %1) #0 {
  %3 = alloca i32, align 4
  %4 = alloca ptr, align 8
  %5 = alloca ptr, align 8
  %6 = alloca i32, align 4
  %7 = alloca i32, align 4
  %8 = alloca ptr, align 8
  %9 = alloca i32, align 4
  store ptr %0, ptr %4, align 8, !tbaa !16
  store ptr %1, ptr %5, align 8, !tbaa !8
  call void @llvm.lifetime.start.p0(i64 4, ptr %6) #4
  call void @llvm.lifetime.start.p0(i64 4, ptr %7) #4
  call void @llvm.lifetime.start.p0(i64 8, ptr %8) #4
  %10 = load ptr, ptr %5, align 8, !tbaa !8
  %11 = icmp ne ptr %10, null
  br i1 %11, label %12, label %15

12:                                               ; preds = %2
  %13 = load ptr, ptr %5, align 8, !tbaa !8
  %14 = load ptr, ptr %13, align 8, !tbaa !20
  br label %16

15:                                               ; preds = %2
  br label %16

16:                                               ; preds = %15, %12
  %17 = phi ptr [ %14, %12 ], [ null, %15 ]
  store ptr %17, ptr %8, align 8, !tbaa !20
  %18 = load ptr, ptr %4, align 8, !tbaa !16
  %19 = load ptr, ptr %5, align 8, !tbaa !8
  %20 = call i32 @i2d_X509(ptr noundef %18, ptr noundef %19)
  store i32 %20, ptr %6, align 4, !tbaa !49
  %21 = load i32, ptr %6, align 4, !tbaa !49
  %22 = icmp sle i32 %21, 0
  br i1 %22, label %26, label %23

23:                                               ; preds = %16
  %24 = load ptr, ptr %4, align 8, !tbaa !16
  %25 = icmp eq ptr %24, null
  br i1 %25, label %26, label %28

26:                                               ; preds = %23, %16
  %27 = load i32, ptr %6, align 4, !tbaa !49
  store i32 %27, ptr %3, align 4
  store i32 1, ptr %9, align 4
  br label %49

28:                                               ; preds = %23
  %29 = load ptr, ptr %4, align 8, !tbaa !16
  %30 = getelementptr inbounds nuw %struct.x509_st, ptr %29, i32 0, i32 21
  %31 = load ptr, ptr %30, align 8, !tbaa !51
  %32 = load ptr, ptr %5, align 8, !tbaa !8
  %33 = call i32 @i2d_X509_CERT_AUX(ptr noundef %31, ptr noundef %32)
  store i32 %33, ptr %7, align 4, !tbaa !49
  %34 = load i32, ptr %7, align 4, !tbaa !49
  %35 = icmp slt i32 %34, 0
  br i1 %35, label %36, label %44

36:                                               ; preds = %28
  %37 = load ptr, ptr %8, align 8, !tbaa !20
  %38 = icmp ne ptr %37, null
  br i1 %38, label %39, label %42

39:                                               ; preds = %36
  %40 = load ptr, ptr %8, align 8, !tbaa !20
  %41 = load ptr, ptr %5, align 8, !tbaa !8
  store ptr %40, ptr %41, align 8, !tbaa !20
  br label %42

42:                                               ; preds = %39, %36
  %43 = load i32, ptr %7, align 4, !tbaa !49
  store i32 %43, ptr %3, align 4
  store i32 1, ptr %9, align 4
  br label %49

44:                                               ; preds = %28
  %45 = load i32, ptr %7, align 4, !tbaa !49
  %46 = load i32, ptr %6, align 4, !tbaa !49
  %47 = add nsw i32 %46, %45
  store i32 %47, ptr %6, align 4, !tbaa !49
  %48 = load i32, ptr %6, align 4, !tbaa !49
  store i32 %48, ptr %3, align 4
  store i32 1, ptr %9, align 4
  br label %49

49:                                               ; preds = %44, %42, %26
  call void @llvm.lifetime.end.p0(i64 8, ptr %8) #4
  call void @llvm.lifetime.end.p0(i64 4, ptr %7) #4
  call void @llvm.lifetime.end.p0(i64 4, ptr %6) #4
  %50 = load i32, ptr %3, align 4
  ret i32 %50
}

; Function Attrs: nounwind uwtable
define i32 @i2d_X509_AUX(ptr noundef %0, ptr noundef %1) #0 {
  %3 = alloca i32, align 4
  %4 = alloca ptr, align 8
  %5 = alloca ptr, align 8
  %6 = alloca i32, align 4
  %7 = alloca ptr, align 8
  %8 = alloca i32, align 4
  store ptr %0, ptr %4, align 8, !tbaa !16
  store ptr %1, ptr %5, align 8, !tbaa !8
  call void @llvm.lifetime.start.p0(i64 4, ptr %6) #4
  call void @llvm.lifetime.start.p0(i64 8, ptr %7) #4
  %9 = load ptr, ptr %5, align 8, !tbaa !8
  %10 = icmp eq ptr %9, null
  br i1 %10, label %15, label %11

11:                                               ; preds = %2
  %12 = load ptr, ptr %5, align 8, !tbaa !8
  %13 = load ptr, ptr %12, align 8, !tbaa !20
  %14 = icmp ne ptr %13, null
  br i1 %14, label %15, label %19

15:                                               ; preds = %11, %2
  %16 = load ptr, ptr %4, align 8, !tbaa !16
  %17 = load ptr, ptr %5, align 8, !tbaa !8
  %18 = call i32 @i2d_x509_aux_internal(ptr noundef %16, ptr noundef %17)
  store i32 %18, ptr %3, align 4
  store i32 1, ptr %8, align 4
  br label %44

19:                                               ; preds = %11
  %20 = load ptr, ptr %4, align 8, !tbaa !16
  %21 = call i32 @i2d_x509_aux_internal(ptr noundef %20, ptr noundef null)
  store i32 %21, ptr %6, align 4, !tbaa !49
  %22 = icmp sle i32 %21, 0
  br i1 %22, label %23, label %25

23:                                               ; preds = %19
  %24 = load i32, ptr %6, align 4, !tbaa !49
  store i32 %24, ptr %3, align 4
  store i32 1, ptr %8, align 4
  br label %44

25:                                               ; preds = %19
  %26 = load i32, ptr %6, align 4, !tbaa !49
  %27 = sext i32 %26 to i64
  %28 = call noalias ptr @CRYPTO_malloc(i64 noundef %27, ptr noundef @.str.2, i32 noundef 274)
  store ptr %28, ptr %7, align 8, !tbaa !20
  %29 = load ptr, ptr %5, align 8, !tbaa !8
  store ptr %28, ptr %29, align 8, !tbaa !20
  %30 = load ptr, ptr %7, align 8, !tbaa !20
  %31 = icmp eq ptr %30, null
  br i1 %31, label %32, label %33

32:                                               ; preds = %25
  store i32 -1, ptr %3, align 4
  store i32 1, ptr %8, align 4
  br label %44

33:                                               ; preds = %25
  %34 = load ptr, ptr %4, align 8, !tbaa !16
  %35 = call i32 @i2d_x509_aux_internal(ptr noundef %34, ptr noundef %7)
  store i32 %35, ptr %6, align 4, !tbaa !49
  %36 = load i32, ptr %6, align 4, !tbaa !49
  %37 = icmp sle i32 %36, 0
  br i1 %37, label %38, label %42

38:                                               ; preds = %33
  %39 = load ptr, ptr %5, align 8, !tbaa !8
  %40 = load ptr, ptr %39, align 8, !tbaa !20
  call void @CRYPTO_free(ptr noundef %40, ptr noundef @.str.2, i32 noundef 281)
  %41 = load ptr, ptr %5, align 8, !tbaa !8
  store ptr null, ptr %41, align 8, !tbaa !20
  br label %42

42:                                               ; preds = %38, %33
  %43 = load i32, ptr %6, align 4, !tbaa !49
  store i32 %43, ptr %3, align 4
  store i32 1, ptr %8, align 4
  br label %44

44:                                               ; preds = %42, %32, %23, %15
  call void @llvm.lifetime.end.p0(i64 8, ptr %7) #4
  call void @llvm.lifetime.end.p0(i64 4, ptr %6) #4
  %45 = load i32, ptr %3, align 4
  ret i32 %45
}