; Function Attrs: nounwind uwtable
define i32 @i2d_X509_AUX(ptr noundef %0, ptr noundef %1) local_unnamed_addr #1 {
  %3 = alloca ptr, align 8
  call void @llvm.lifetime.start.p0(i64 8, ptr nonnull %3) #7
  %4 = icmp eq ptr %1, null
  %5 = icmp eq ptr %0, null
  br i1 %4, label %.split, label %14

.split:                                           ; preds = %2
  %6 = tail call i32 @ASN1_item_i2d(ptr noundef %0, ptr noundef null, ptr noundef nonnull @X509_it.local_it) #7
  %7 = icmp slt i32 %6, 1
  %or.cond.i = or i1 %5, %7
  br i1 %or.cond.i, label %i2d_x509_aux_internal.exit, label %8

8:                                                ; preds = %.split
  %9 = getelementptr inbounds nuw i8, ptr %0, i64 336
  %10 = load ptr, ptr %9, align 8, !tbaa !39
  %11 = tail call i32 @i2d_X509_CERT_AUX(ptr noundef %10, ptr noundef null) #7
  %12 = icmp slt i32 %11, 0
  %13 = select i1 %12, i32 0, i32 %6
  %spec.select = add nuw nsw i32 %13, %11
  br label %i2d_x509_aux_internal.exit

14:                                               ; preds = %2
  %15 = load ptr, ptr %1, align 8, !tbaa !36
  %.not = icmp eq ptr %15, null
  br i1 %.not, label %26, label %.split18.i

.split18.i:                                       ; preds = %14
  %16 = tail call i32 @ASN1_item_i2d(ptr noundef %0, ptr noundef nonnull %1, ptr noundef nonnull @X509_it.local_it) #7
  %17 = icmp slt i32 %16, 1
  %or.cond.i16 = or i1 %5, %17
  br i1 %or.cond.i16, label %i2d_x509_aux_internal.exit, label %18

18:                                               ; preds = %.split18.i
  %19 = getelementptr inbounds nuw i8, ptr %0, i64 336
  %20 = load ptr, ptr %19, align 8, !tbaa !39
  %21 = tail call i32 @i2d_X509_CERT_AUX(ptr noundef %20, ptr noundef nonnull %1) #7
  %22 = icmp slt i32 %21, 0
  br i1 %22, label %23, label %24

23:                                               ; preds = %18
  store ptr %15, ptr %1, align 8, !tbaa !36
  br label %i2d_x509_aux_internal.exit

24:                                               ; preds = %18
  %25 = add nuw nsw i32 %21, %16
  br label %i2d_x509_aux_internal.exit

26:                                               ; preds = %14
  %27 = tail call i32 @ASN1_item_i2d(ptr noundef %0, ptr noundef null, ptr noundef nonnull @X509_it.local_it) #7
  %28 = icmp slt i32 %27, 1
  %or.cond.i21 = or i1 %5, %28
  br i1 %or.cond.i21, label %i2d_x509_aux_internal.exit24, label %29

29:                                               ; preds = %26
  %30 = getelementptr inbounds nuw i8, ptr %0, i64 336
  %31 = load ptr, ptr %30, align 8, !tbaa !39
  %32 = tail call i32 @i2d_X509_CERT_AUX(ptr noundef %31, ptr noundef null) #7
  %33 = icmp slt i32 %32, 0
  br i1 %33, label %i2d_x509_aux_internal.exit, label %i2d_x509_aux_internal.exit24.thread34

i2d_x509_aux_internal.exit24.thread34:            ; preds = %29
  %34 = add nuw nsw i32 %32, %27
  br label %35

i2d_x509_aux_internal.exit24:                     ; preds = %26
  br i1 %28, label %i2d_x509_aux_internal.exit, label %35

35:                                               ; preds = %i2d_x509_aux_internal.exit24.thread34, %i2d_x509_aux_internal.exit24
  %.0.i2236 = phi i32 [ %34, %i2d_x509_aux_internal.exit24.thread34 ], [ %27, %i2d_x509_aux_internal.exit24 ]
  %36 = zext nneg i32 %.0.i2236 to i64
  %37 = tail call noalias ptr @CRYPTO_malloc(i64 noundef %36, ptr noundef nonnull @.str.2, i32 noundef 274) #7
  store ptr %37, ptr %3, align 8, !tbaa !36
  store ptr %37, ptr %1, align 8, !tbaa !36
  %38 = icmp eq ptr %37, null
  br i1 %38, label %i2d_x509_aux_internal.exit, label %39

39:                                               ; preds = %35
  %40 = call i32 @ASN1_item_i2d(ptr noundef %0, ptr noundef nonnull %3, ptr noundef nonnull @X509_it.local_it) #7
  %41 = icmp slt i32 %40, 1
  %or.cond.i29 = or i1 %5, %41
  br i1 %or.cond.i29, label %i2d_x509_aux_internal.exit32, label %42

42:                                               ; preds = %39
  %43 = getelementptr inbounds nuw i8, ptr %0, i64 336
  %44 = load ptr, ptr %43, align 8, !tbaa !39
  %45 = call i32 @i2d_X509_CERT_AUX(ptr noundef %44, ptr noundef nonnull %3) #7
  %46 = icmp slt i32 %45, 0
  br i1 %46, label %i2d_x509_aux_internal.exit32.thread, label %i2d_x509_aux_internal.exit32.thread39

i2d_x509_aux_internal.exit32.thread:              ; preds = %42
  store ptr %37, ptr %3, align 8, !tbaa !36
  br label %48

i2d_x509_aux_internal.exit32.thread39:            ; preds = %42
  %47 = add nuw nsw i32 %45, %40
  br label %i2d_x509_aux_internal.exit

i2d_x509_aux_internal.exit32:                     ; preds = %39
  br i1 %41, label %48, label %i2d_x509_aux_internal.exit

48:                                               ; preds = %i2d_x509_aux_internal.exit32.thread, %i2d_x509_aux_internal.exit32
  %.0.i3038 = phi i32 [ %45, %i2d_x509_aux_internal.exit32.thread ], [ %40, %i2d_x509_aux_internal.exit32 ]
  %49 = load ptr, ptr %1, align 8, !tbaa !36
  call void @CRYPTO_free(ptr noundef %49, ptr noundef nonnull @.str.2, i32 noundef 281) #7
  store ptr null, ptr %1, align 8, !tbaa !36
  br label %i2d_x509_aux_internal.exit

i2d_x509_aux_internal.exit:                       ; preds = %8, %29, %i2d_x509_aux_internal.exit32.thread39, %24, %23, %.split18.i, %.split, %i2d_x509_aux_internal.exit32, %48, %35, %i2d_x509_aux_internal.exit24
  %.0 = phi i32 [ %27, %i2d_x509_aux_internal.exit24 ], [ -1, %35 ], [ %.0.i3038, %48 ], [ %40, %i2d_x509_aux_internal.exit32 ], [ %6, %.split ], [ %25, %24 ], [ %16, %.split18.i ], [ %21, %23 ], [ %47, %i2d_x509_aux_internal.exit32.thread39 ], [ %32, %29 ], [ %spec.select, %8 ]
  call void @llvm.lifetime.end.p0(i64 8, ptr nonnull %3) #7
  ret i32 %.0
}